target datalayout = "e-m:e-p270:32:32-p271:32:32-p272:64:64-i64:64-i128:128-f80:128-n8:16:32:64-S128"
target triple = "x86_64-pc-linux-gnu"

%struct._phpdbg_param = type { i32, i64, i64, %struct.anon, %struct.anon.0, ptr, i64, ptr, ptr }
%struct.anon = type { ptr, i64 }
%struct.anon.0 = type { ptr, ptr }

; Function Attrs: nounwind uwtable
define i64 @phpdbg_hash_param(ptr noundef %0) #0 {
  %2 = alloca ptr, align 8
  %3 = alloca i64, align 8
  store ptr %0, ptr %2, align 8
  %4 = load ptr, ptr %2, align 8
  %5 = getelementptr inbounds %struct._phpdbg_param, ptr %4, i32 0, i32 0
  %6 = load i32, ptr %5, align 8
  %7 = zext i32 %6 to i64
  store i64 %7, ptr %3, align 8
  %8 = load ptr, ptr %2, align 8
  %9 = getelementptr inbounds %struct._phpdbg_param, ptr %8, i32 0, i32 0
  %10 = load i32, ptr %9, align 8
  switch i32 %10, label %141 [
    i32 9, label %11
    i32 5, label %12
    i32 4, label %22
    i32 2, label %47
    i32 1, label %77
    i32 6, label %83
    i32 7, label %89
    i32 8, label %104
    i32 0, label %140
  ]

11:                                               ; preds = %1
  br label %142

12:                                               ; preds = %1
  %13 = load ptr, ptr %2, align 8
  %14 = getelementptr inbounds %struct._phpdbg_param, ptr %13, i32 0, i32 5
  %15 = load ptr, ptr %14, align 8
  %16 = load ptr, ptr %2, align 8
  %17 = getelementptr inbounds %struct._phpdbg_param, ptr %16, i32 0, i32 6
  %18 = load i64, ptr %17, align 8
  %19 = call i64 @zend_hash_func(ptr noundef %15, i64 noundef %18)
  %20 = load i64, ptr %3, align 8
  %21 = add i64 %20, %19
  store i64 %21, ptr %3, align 8
  br label %142

22:                                               ; preds = %1
  %23 = load ptr, ptr %2, align 8
  %24 = getelementptr inbounds %struct._phpdbg_param, ptr %23, i32 0, i32 4
  %25 = getelementptr inbounds %struct.anon.0, ptr %24, i32 0, i32 0
  %26 = load ptr, ptr %25, align 8
  %27 = load ptr, ptr %2, align 8
  %28 = getelementptr inbounds %struct._phpdbg_param, ptr %27, i32 0, i32 4
  %29 = getelementptr inbounds %struct.anon.0, ptr %28, i32 0, i32 0
  %30 = load ptr, ptr %29, align 8
  %31 = call i64 @strlen(ptr noundef %30) #13
  %32 = call i64 @zend_hash_func(ptr noundef %26, i64 noundef %31)
  %33 = load i64, ptr %3, align 8
  %34 = add i64 %33, %32
  store i64 %34, ptr %3, align 8
  %35 = load ptr, ptr %2, align 8
  %36 = getelementptr inbounds %struct._phpdbg_param, ptr %35, i32 0, i32 4
  %37 = getelementptr inbounds %struct.anon.0, ptr %36, i32 0, i32 1
  %38 = load ptr, ptr %37, align 8
  %39 = load ptr, ptr %2, align 8
  %40 = getelementptr inbounds %struct._phpdbg_param, ptr %39, i32 0, i32 4
  %41 = getelementptr inbounds %struct.anon.0, ptr %40, i32 0, i32 1
  %42 = load ptr, ptr %41, align 8
  %43 = call i64 @strlen(ptr noundef %42) #13
  %44 = call i64 @zend_hash_func(ptr noundef %38, i64 noundef %43)
  %45 = load i64, ptr %3, align 8
  %46 = add i64 %45, %44
  store i64 %46, ptr %3, align 8
  br label %142

47:                                               ; preds = %1
  %48 = load ptr, ptr %2, align 8
  %49 = getelementptr inbounds %struct._phpdbg_param, ptr %48, i32 0, i32 3
  %50 = getelementptr inbounds %struct.anon, ptr %49, i32 0, i32 0
  %51 = load ptr, ptr %50, align 8
  %52 = load ptr, ptr %2, align 8
  %53 = getelementptr inbounds %struct._phpdbg_param, ptr %52, i32 0, i32 3
  %54 = getelementptr inbounds %struct.anon, ptr %53, i32 0, i32 0
  %55 = load ptr, ptr %54, align 8
  %56 = call i64 @strlen(ptr noundef %55) #13
  %57 = call i64 @zend_hash_func(ptr noundef %51, i64 noundef %56)
  %58 = load i64, ptr %3, align 8
  %59 = add i64 %58, %57
  store i64 %59, ptr %3, align 8
  %60 = load ptr, ptr %2, align 8
  %61 = getelementptr inbounds %struct._phpdbg_param, ptr %60, i32 0, i32 3
  %62 = getelementptr inbounds %struct.anon, ptr %61, i32 0, i32 1
  %63 = load i64, ptr %62, align 8
  %64 = load i64, ptr %3, align 8
  %65 = add i64 %64, %63
  store i64 %65, ptr %3, align 8
  %66 = load ptr, ptr %2, align 8
  %67 = getelementptr inbounds %struct._phpdbg_param, ptr %66, i32 0, i32 1
  %68 = load i64, ptr %67, align 8
  %69 = icmp ne i64 %68, 0
  br i1 %69, label %70, label %76

70:                                               ; preds = %47
  %71 = load ptr, ptr %2, align 8
  %72 = getelementptr inbounds %struct._phpdbg_param, ptr %71, i32 0, i32 1
  %73 = load i64, ptr %72, align 8
  %74 = load i64, ptr %3, align 8
  %75 = add i64 %74, %73
  store i64 %75, ptr %3, align 8
  br label %76

76:                                               ; preds = %70, %47
  br label %142

77:                                               ; preds = %1
  %78 = load ptr, ptr %2, align 8
  %79 = getelementptr inbounds %struct._phpdbg_param, ptr %78, i32 0, i32 2
  %80 = load i64, ptr %79, align 8
  %81 = load i64, ptr %3, align 8
  %82 = add i64 %81, %80
  store i64 %82, ptr %3, align 8
  br label %142

83:                                               ; preds = %1
  %84 = load ptr, ptr %2, align 8
  %85 = getelementptr inbounds %struct._phpdbg_param, ptr %84, i32 0, i32 1
  %86 = load i64, ptr %85, align 8
  %87 = load i64, ptr %3, align 8
  %88 = add i64 %87, %86
  store i64 %88, ptr %3, align 8
  br label %142

89:                                               ; preds = %1
  %90 = load ptr, ptr %2, align 8
  %91 = getelementptr inbounds %struct._phpdbg_param, ptr %90, i32 0, i32 5
  %92 = load ptr, ptr %91, align 8
  %93 = load ptr, ptr %2, align 8
  %94 = getelementptr inbounds %struct._phpdbg_param, ptr %93, i32 0, i32 6
  %95 = load i64, ptr %94, align 8
  %96 = call i64 @zend_hash_func(ptr noundef %92, i64 noundef %95)
  %97 = load i64, ptr %3, align 8
  %98 = add i64 %97, %96
  store i64 %98, ptr %3, align 8
  %99 = load ptr, ptr %2, align 8
  %100 = getelementptr inbounds %struct._phpdbg_param, ptr %99, i32 0, i32 1
  %101 = load i64, ptr %100, align 8
  %102 = load i64, ptr %3, align 8
  %103 = add i64 %102, %101
  store i64 %103, ptr %3, align 8
  br label %142

104:                                              ; preds = %1
  %105 = load ptr, ptr %2, align 8
  %106 = getelementptr inbounds %struct._phpdbg_param, ptr %105, i32 0, i32 4
  %107 = getelementptr inbounds %struct.anon.0, ptr %106, i32 0, i32 0
  %108 = load ptr, ptr %107, align 8
  %109 = load ptr, ptr %2, align 8
  %110 = getelementptr inbounds %struct._phpdbg_param, ptr %109, i32 0, i32 4
  %111 = getelementptr inbounds %struct.anon.0, ptr %110, i32 0, i32 0
  %112 = load ptr, ptr %111, align 8
  %113 = call i64 @strlen(ptr noundef %112) #13
  %114 = call i64 @zend_hash_func(ptr noundef %108, i64 noundef %113)
  %115 = load i64, ptr %3, align 8
  %116 = add i64 %115, %114
  store i64 %116, ptr %3, align 8
  %117 = load ptr, ptr %2, align 8
  %118 = getelementptr inbounds %struct._phpdbg_param, ptr %117, i32 0, i32 4
  %119 = getelementptr inbounds %struct.anon.0, ptr %118, i32 0, i32 1
  %120 = load ptr, ptr %119, align 8
  %121 = load ptr, ptr %2, align 8
  %122 = getelementptr inbounds %struct._phpdbg_param, ptr %121, i32 0, i32 4
  %123 = getelementptr inbounds %struct.anon.0, ptr %122, i32 0, i32 1
  %124 = load ptr, ptr %123, align 8
  %125 = call i64 @strlen(ptr noundef %124) #13
  %126 = call i64 @zend_hash_func(ptr noundef %120, i64 noundef %125)
  %127 = load i64, ptr %3, align 8
  %128 = add i64 %127, %126
  store i64 %128, ptr %3, align 8
  %129 = load ptr, ptr %2, align 8
  %130 = getelementptr inbounds %struct._phpdbg_param, ptr %129, i32 0, i32 1
  %131 = load i64, ptr %130, align 8
  %132 = icmp ne i64 %131, 0
  br i1 %132, label %133, label %139

133:                                              ; preds = %104
  %134 = load ptr, ptr %2, align 8
  %135 = getelementptr inbounds %struct._phpdbg_param, ptr %134, i32 0, i32 1
  %136 = load i64, ptr %135, align 8
  %137 = load i64, ptr %3, align 8
  %138 = add i64 %137, %136
  store i64 %138, ptr %3, align 8
  br label %139

139:                                              ; preds = %133, %104
  br label %142

140:                                              ; preds = %1
  br label %142

141:                                              ; preds = %1
  br label %142

142:                                              ; preds = %141, %140, %139, %89, %83, %77, %76, %22, %12, %11
  %143 = load i64, ptr %3, align 8
  ret i64 %143
}