; Function Attrs: nounwind uwtable
define i64 @phpdbg_hash_param(ptr nocapture noundef readonly %0) local_unnamed_addr #1 {
  %2 = load i32, ptr %0, align 8
  %3 = zext i32 %2 to i64
  switch i32 %2, label %66 [
    i32 8, label %52
    i32 5, label %4
    i32 4, label %11
    i32 2, label %22
    i32 1, label %34
    i32 6, label %38
    i32 7, label %42
  ]

4:                                                ; preds = %1
  %5 = getelementptr inbounds i8, ptr %0, i64 56
  %6 = load ptr, ptr %5, align 8
  %7 = getelementptr inbounds i8, ptr %0, i64 64
  %8 = load i64, ptr %7, align 8
  %9 = tail call i64 @zend_hash_func(ptr noundef %6, i64 noundef %8) #22
  %10 = add i64 %9, %3
  br label %66

11:                                               ; preds = %1
  %12 = getelementptr inbounds i8, ptr %0, i64 40
  %13 = load ptr, ptr %12, align 8
  %14 = tail call i64 @strlen(ptr noundef nonnull dereferenceable(1) %13) #23
  %15 = tail call i64 @zend_hash_func(ptr noundef %13, i64 noundef %14) #22
  %16 = add i64 %15, %3
  %17 = getelementptr inbounds i8, ptr %0, i64 48
  %18 = load ptr, ptr %17, align 8
  %19 = tail call i64 @strlen(ptr noundef nonnull dereferenceable(1) %18) #23
  %20 = tail call i64 @zend_hash_func(ptr noundef %18, i64 noundef %19) #22
  %21 = add i64 %16, %20
  br label %66

22:                                               ; preds = %1
  %23 = getelementptr inbounds i8, ptr %0, i64 24
  %24 = load ptr, ptr %23, align 8
  %25 = tail call i64 @strlen(ptr noundef nonnull dereferenceable(1) %24) #23
  %26 = tail call i64 @zend_hash_func(ptr noundef %24, i64 noundef %25) #22
  %27 = add i64 %26, %3
  %28 = getelementptr inbounds i8, ptr %0, i64 32
  %29 = load i64, ptr %28, align 8
  %30 = add i64 %27, %29
  %31 = getelementptr inbounds i8, ptr %0, i64 8
  %32 = load i64, ptr %31, align 8
  %33 = add i64 %30, %32
  br label %66

34:                                               ; preds = %1
  %35 = getelementptr inbounds i8, ptr %0, i64 16
  %36 = load i64, ptr %35, align 8
  %37 = add i64 %36, %3
  br label %66

38:                                               ; preds = %1
  %39 = getelementptr inbounds i8, ptr %0, i64 8
  %40 = load i64, ptr %39, align 8
  %41 = add i64 %40, %3
  br label %66

42:                                               ; preds = %1
  %43 = getelementptr inbounds i8, ptr %0, i64 56
  %44 = load ptr, ptr %43, align 8
  %45 = getelementptr inbounds i8, ptr %0, i64 64
  %46 = load i64, ptr %45, align 8
  %47 = tail call i64 @zend_hash_func(ptr noundef %44, i64 noundef %46) #22
  %48 = add i64 %47, %3
  %49 = getelementptr inbounds i8, ptr %0, i64 8
  %50 = load i64, ptr %49, align 8
  %51 = add i64 %48, %50
  br label %66

52:                                               ; preds = %1
  %53 = getelementptr inbounds i8, ptr %0, i64 40
  %54 = load ptr, ptr %53, align 8
  %55 = tail call i64 @strlen(ptr noundef nonnull dereferenceable(1) %54) #23
  %56 = tail call i64 @zend_hash_func(ptr noundef %54, i64 noundef %55) #22
  %57 = add i64 %56, %3
  %58 = getelementptr inbounds i8, ptr %0, i64 48
  %59 = load ptr, ptr %58, align 8
  %60 = tail call i64 @strlen(ptr noundef nonnull dereferenceable(1) %59) #23
  %61 = tail call i64 @zend_hash_func(ptr noundef %59, i64 noundef %60) #22
  %62 = add i64 %57, %61
  %63 = getelementptr inbounds i8, ptr %0, i64 8
  %64 = load i64, ptr %63, align 8
  %65 = add i64 %62, %64
  br label %66

66:                                               ; preds = %52, %22, %1, %42, %38, %34, %11, %4
  %.0 = phi i64 [ %3, %1 ], [ %51, %42 ], [ %41, %38 ], [ %37, %34 ], [ %21, %11 ], [ %10, %4 ], [ %33, %22 ], [ %65, %52 ]
  ret i64 %.0
}